target datalayout = "e-m:e-p270:32:32-p271:32:32-p272:64:64-i64:64-i128:128-f80:128-n8:16:32:64-S128"
target triple = "x86_64-pc-linux-gnu"

%"class.std::ios_base" = type { ptr, i64, i64, i32, i32, i32, ptr, %"struct.std::ios_base::_Words", [8 x %"struct.std::ios_base::_Words"], i32, ptr, %"class.std::locale" }
%"struct.std::ios_base::_Words" = type { ptr, i64 }
%"class.std::locale" = type { ptr }
%"class.absl::Time" = type { %"class.absl::Duration" }
%"class.absl::Duration" = type { %"class.absl::Duration::HiRep", i32 }
%"class.absl::Duration::HiRep" = type { i32, i32 }
%"class.testing::MatchResultListener" = type { ptr, ptr }

@.str.43 = private unnamed_addr constant [35 x i8] c"didn't satisfy the given predicate\00", align 1

; Function Attrs: mustprogress nounwind uwtable
define linkonce_odr dso_local noundef i64 @_ZNK4absl8Duration5HiRep3GetEv(ptr noundef nonnull align 4 dereferenceable(8) %0) #9 comdat align 2 {
  %2 = alloca ptr, align 8
  %3 = alloca i64, align 8
  store ptr %0, ptr %2, align 8, !tbaa !730
  %4 = load ptr, ptr %2, align 8
  call void @llvm.lifetime.start.p0(i64 8, ptr %3) #3
  %5 = getelementptr inbounds nuw %"class.absl::Duration::HiRep", ptr %4, i32 0, i32 1
  %6 = load i32, ptr %5, align 4, !tbaa !732
  %7 = zext i32 %6 to i64
  %8 = shl i64 %7, 32
  %9 = getelementptr inbounds nuw %"class.absl::Duration::HiRep", ptr %4, i32 0, i32 0
  %10 = load i32, ptr %9, align 4, !tbaa !733
  %11 = zext i32 %10 to i64
  %12 = or i64 %8, %11
  store i64 %12, ptr %3, align 8, !tbaa !27
  %13 = load i64, ptr %3, align 8, !tbaa !27
  call void @llvm.lifetime.end.p0(i64 8, ptr %3) #3
  ret i64 %13
}

; Function Attrs: mustprogress nounwind willreturn memory(none) uwtable
define linkonce_odr dso_local noundef i32 @_ZN4absl13time_internal8GetRepLoENS_8DurationE(i64 %0, i32 %1) #19 comdat {
  %3 = alloca %"class.absl::Duration", align 4
  %4 = alloca { i64, i32 }, align 4
  %5 = getelementptr inbounds nuw { i64, i32 }, ptr %4, i32 0, i32 0
  store i64 %0, ptr %5, align 4
  %6 = getelementptr inbounds nuw { i64, i32 }, ptr %4, i32 0, i32 1
  store i32 %1, ptr %6, align 4
  call void @llvm.memcpy.p0.p0.i64(ptr align 4 %3, ptr align 4 %4, i64 12, i1 false)
  %7 = getelementptr inbounds nuw %"class.absl::Duration", ptr %3, i32 0, i32 1
  %8 = load i32, ptr %7, align 4, !tbaa !729
  ret i32 %8
}

; Function Attrs: mustprogress nounwind uwtable
define linkonce_odr dso_local noundef i64 @_ZNSt14numeric_limitsIlE3minEv() #9 comdat align 2 {
  ret i64 -9223372036854775808
}

; Function Attrs: mustprogress nounwind willreturn memory(none) uwtable
define linkonce_odr dso_local noundef i64 @_ZN4absl13time_internal8GetRepHiENS_8DurationE(i64 %0, i32 %1) #19 comdat {
  %3 = alloca %"class.absl::Duration", align 4
  %4 = alloca { i64, i32 }, align 4
  %5 = getelementptr inbounds nuw { i64, i32 }, ptr %4, i32 0, i32 0
  store i64 %0, ptr %5, align 4
  %6 = getelementptr inbounds nuw { i64, i32 }, ptr %4, i32 0, i32 1
  store i32 %1, ptr %6, align 4
  call void @llvm.memcpy.p0.p0.i64(ptr align 4 %3, ptr align 4 %4, i64 12, i1 false)
  %7 = getelementptr inbounds nuw %"class.absl::Duration", ptr %3, i32 0, i32 0
  %8 = call noundef i64 @_ZNK4absl8Duration5HiRep3GetEv(ptr noundef nonnull align 4 dereferenceable(8) %7)
  ret i64 %8
}

; Function Attrs: inlinehint mustprogress nounwind uwtable
define linkonce_odr dso_local noundef i32 @_ZStorSt12_Ios_IostateS_(i32 noundef %0, i32 noundef %1) #10 comdat {
  %3 = alloca i32, align 4
  %4 = alloca i32, align 4
  store i32 %0, ptr %3, align 4, !tbaa !100
  store i32 %1, ptr %4, align 4, !tbaa !100
  %5 = load i32, ptr %3, align 4, !tbaa !100
  %6 = load i32, ptr %4, align 4, !tbaa !100
  %7 = or i32 %5, %6
  ret i32 %7
}

; Function Attrs: mustprogress nounwind uwtable
define available_externally noundef i32 @_ZNKSt9basic_iosIcSt11char_traitsIcEE7rdstateEv(ptr noundef nonnull align 8 dereferenceable(264) %0) #9 align 2 {
  %2 = alloca ptr, align 8
  store ptr %0, ptr %2, align 8, !tbaa !98
  %3 = load ptr, ptr %2, align 8
  %4 = getelementptr inbounds nuw %"class.std::ios_base", ptr %3, i32 0, i32 5
  %5 = load i32, ptr %4, align 8, !tbaa !102
  ret i32 %5
}

; Function Attrs: mustprogress nounwind willreturn memory(none) uwtable
define linkonce_odr dso_local noundef zeroext i1 @_ZN4abslltENS_8DurationES0_(i64 %0, i32 %1, i64 %2, i32 %3) #19 comdat {
  %5 = alloca %"class.absl::Duration", align 4
  %6 = alloca { i64, i32 }, align 4
  %7 = alloca %"class.absl::Duration", align 4
  %8 = alloca { i64, i32 }, align 4
  %9 = alloca %"class.absl::Duration", align 4
  %10 = alloca { i64, i32 }, align 4
  %11 = alloca %"class.absl::Duration", align 4
  %12 = alloca { i64, i32 }, align 4
  %13 = alloca %"class.absl::Duration", align 4
  %14 = alloca { i64, i32 }, align 4
  %15 = alloca %"class.absl::Duration", align 4
  %16 = alloca { i64, i32 }, align 4
  %17 = alloca %"class.absl::Duration", align 4
  %18 = alloca { i64, i32 }, align 4
  %19 = alloca %"class.absl::Duration", align 4
  %20 = alloca { i64, i32 }, align 4
  %21 = alloca %"class.absl::Duration", align 4
  %22 = alloca { i64, i32 }, align 4
  %23 = alloca %"class.absl::Duration", align 4
  %24 = alloca { i64, i32 }, align 4
  %25 = alloca %"class.absl::Duration", align 4
  %26 = alloca { i64, i32 }, align 4
  %27 = getelementptr inbounds nuw { i64, i32 }, ptr %6, i32 0, i32 0
  store i64 %0, ptr %27, align 4
  %28 = getelementptr inbounds nuw { i64, i32 }, ptr %6, i32 0, i32 1
  store i32 %1, ptr %28, align 4
  call void @llvm.memcpy.p0.p0.i64(ptr align 4 %5, ptr align 4 %6, i64 12, i1 false)
  %29 = getelementptr inbounds nuw { i64, i32 }, ptr %8, i32 0, i32 0
  store i64 %2, ptr %29, align 4
  %30 = getelementptr inbounds nuw { i64, i32 }, ptr %8, i32 0, i32 1
  store i32 %3, ptr %30, align 4
  call void @llvm.memcpy.p0.p0.i64(ptr align 4 %7, ptr align 4 %8, i64 12, i1 false)
  call void @llvm.memcpy.p0.p0.i64(ptr align 4 %9, ptr align 4 %5, i64 12, i1 false), !tbaa.struct !63
  call void @llvm.memcpy.p0.p0.i64(ptr align 4 %10, ptr align 4 %9, i64 12, i1 false)
  %31 = getelementptr inbounds nuw { i64, i32 }, ptr %10, i32 0, i32 0
  %32 = load i64, ptr %31, align 4
  %33 = getelementptr inbounds nuw { i64, i32 }, ptr %10, i32 0, i32 1
  %34 = load i32, ptr %33, align 4
  %35 = call noundef i64 @_ZN4absl13time_internal8GetRepHiENS_8DurationE(i64 %32, i32 %34) #25
  call void @llvm.memcpy.p0.p0.i64(ptr align 4 %11, ptr align 4 %7, i64 12, i1 false), !tbaa.struct !63
  call void @llvm.memcpy.p0.p0.i64(ptr align 4 %12, ptr align 4 %11, i64 12, i1 false)
  %36 = getelementptr inbounds nuw { i64, i32 }, ptr %12, i32 0, i32 0
  %37 = load i64, ptr %36, align 4
  %38 = getelementptr inbounds nuw { i64, i32 }, ptr %12, i32 0, i32 1
  %39 = load i32, ptr %38, align 4
  %40 = call noundef i64 @_ZN4absl13time_internal8GetRepHiENS_8DurationE(i64 %37, i32 %39) #25
  %41 = icmp ne i64 %35, %40
  br i1 %41, label %42, label %54

42:                                               ; preds = %4
  call void @llvm.memcpy.p0.p0.i64(ptr align 4 %13, ptr align 4 %5, i64 12, i1 false), !tbaa.struct !63
  call void @llvm.memcpy.p0.p0.i64(ptr align 4 %14, ptr align 4 %13, i64 12, i1 false)
  %43 = getelementptr inbounds nuw { i64, i32 }, ptr %14, i32 0, i32 0
  %44 = load i64, ptr %43, align 4
  %45 = getelementptr inbounds nuw { i64, i32 }, ptr %14, i32 0, i32 1
  %46 = load i32, ptr %45, align 4
  %47 = call noundef i64 @_ZN4absl13time_internal8GetRepHiENS_8DurationE(i64 %44, i32 %46) #25
  call void @llvm.memcpy.p0.p0.i64(ptr align 4 %15, ptr align 4 %7, i64 12, i1 false), !tbaa.struct !63
  call void @llvm.memcpy.p0.p0.i64(ptr align 4 %16, ptr align 4 %15, i64 12, i1 false)
  %48 = getelementptr inbounds nuw { i64, i32 }, ptr %16, i32 0, i32 0
  %49 = load i64, ptr %48, align 4
  %50 = getelementptr inbounds nuw { i64, i32 }, ptr %16, i32 0, i32 1
  %51 = load i32, ptr %50, align 4
  %52 = call noundef i64 @_ZN4absl13time_internal8GetRepHiENS_8DurationE(i64 %49, i32 %51) #25
  %53 = icmp slt i64 %47, %52
  br label %90

54:                                               ; preds = %4
  call void @llvm.memcpy.p0.p0.i64(ptr align 4 %17, ptr align 4 %5, i64 12, i1 false), !tbaa.struct !63
  call void @llvm.memcpy.p0.p0.i64(ptr align 4 %18, ptr align 4 %17, i64 12, i1 false)
  %55 = getelementptr inbounds nuw { i64, i32 }, ptr %18, i32 0, i32 0
  %56 = load i64, ptr %55, align 4
  %57 = getelementptr inbounds nuw { i64, i32 }, ptr %18, i32 0, i32 1
  %58 = load i32, ptr %57, align 4
  %59 = call noundef i64 @_ZN4absl13time_internal8GetRepHiENS_8DurationE(i64 %56, i32 %58) #25
  %60 = call noundef i64 @_ZNSt14numeric_limitsIlE3minEv() #3
  %61 = icmp eq i64 %59, %60
  br i1 %61, label %62, label %76

62:                                               ; preds = %54
  call void @llvm.memcpy.p0.p0.i64(ptr align 4 %19, ptr align 4 %5, i64 12, i1 false), !tbaa.struct !63
  call void @llvm.memcpy.p0.p0.i64(ptr align 4 %20, ptr align 4 %19, i64 12, i1 false)
  %63 = getelementptr inbounds nuw { i64, i32 }, ptr %20, i32 0, i32 0
  %64 = load i64, ptr %63, align 4
  %65 = getelementptr inbounds nuw { i64, i32 }, ptr %20, i32 0, i32 1
  %66 = load i32, ptr %65, align 4
  %67 = call noundef i32 @_ZN4absl13time_internal8GetRepLoENS_8DurationE(i64 %64, i32 %66) #25
  %68 = add i32 %67, 1
  call void @llvm.memcpy.p0.p0.i64(ptr align 4 %21, ptr align 4 %7, i64 12, i1 false), !tbaa.struct !63
  call void @llvm.memcpy.p0.p0.i64(ptr align 4 %22, ptr align 4 %21, i64 12, i1 false)
  %69 = getelementptr inbounds nuw { i64, i32 }, ptr %22, i32 0, i32 0
  %70 = load i64, ptr %69, align 4
  %71 = getelementptr inbounds nuw { i64, i32 }, ptr %22, i32 0, i32 1
  %72 = load i32, ptr %71, align 4
  %73 = call noundef i32 @_ZN4absl13time_internal8GetRepLoENS_8DurationE(i64 %70, i32 %72) #25
  %74 = add i32 %73, 1
  %75 = icmp ult i32 %68, %74
  br label %88

76:                                               ; preds = %54
  call void @llvm.memcpy.p0.p0.i64(ptr align 4 %23, ptr align 4 %5, i64 12, i1 false), !tbaa.struct !63
  call void @llvm.memcpy.p0.p0.i64(ptr align 4 %24, ptr align 4 %23, i64 12, i1 false)
  %77 = getelementptr inbounds nuw { i64, i32 }, ptr %24, i32 0, i32 0
  %78 = load i64, ptr %77, align 4
  %79 = getelementptr inbounds nuw { i64, i32 }, ptr %24, i32 0, i32 1
  %80 = load i32, ptr %79, align 4
  %81 = call noundef i32 @_ZN4absl13time_internal8GetRepLoENS_8DurationE(i64 %78, i32 %80) #25
  call void @llvm.memcpy.p0.p0.i64(ptr align 4 %25, ptr align 4 %7, i64 12, i1 false), !tbaa.struct !63
  call void @llvm.memcpy.p0.p0.i64(ptr align 4 %26, ptr align 4 %25, i64 12, i1 false)
  %82 = getelementptr inbounds nuw { i64, i32 }, ptr %26, i32 0, i32 0
  %83 = load i64, ptr %82, align 4
  %84 = getelementptr inbounds nuw { i64, i32 }, ptr %26, i32 0, i32 1
  %85 = load i32, ptr %84, align 4
  %86 = call noundef i32 @_ZN4absl13time_internal8GetRepLoENS_8DurationE(i64 %83, i32 %85) #25
  %87 = icmp ult i32 %81, %86
  br label %88

88:                                               ; preds = %76, %62
  %89 = phi i1 [ %75, %62 ], [ %87, %76 ]
  br label %90

90:                                               ; preds = %88, %42
  %91 = phi i1 [ %53, %42 ], [ %89, %88 ]
  ret i1 %91
}

; Function Attrs: mustprogress nounwind uwtable
define linkonce_odr dso_local noundef i64 @_ZNSt11char_traitsIcE6lengthEPKc(ptr noundef %0) #9 comdat align 2 {
  %2 = alloca ptr, align 8
  store ptr %0, ptr %2, align 8, !tbaa !22
  %3 = load ptr, ptr %2, align 8, !tbaa !22
  %4 = call i64 @strlen(ptr noundef %3) #3
  ret i64 %4
}

; Function Attrs: mustprogress uwtable
define available_externally void @_ZNSt9basic_iosIcSt11char_traitsIcEE8setstateESt12_Ios_Iostate(ptr noundef nonnull align 8 dereferenceable(264) %0, i32 noundef %1) #4 align 2 {
  %3 = alloca ptr, align 8
  %4 = alloca i32, align 4
  store ptr %0, ptr %3, align 8, !tbaa !98
  store i32 %1, ptr %4, align 4, !tbaa !100
  %5 = load ptr, ptr %3, align 8
  %6 = call noundef i32 @_ZNKSt9basic_iosIcSt11char_traitsIcEE7rdstateEv(ptr noundef nonnull align 8 dereferenceable(264) %5)
  %7 = load i32, ptr %4, align 4, !tbaa !100
  %8 = call noundef i32 @_ZStorSt12_Ios_IostateS_(i32 noundef %6, i32 noundef %7)
  call void @_ZNSt9basic_iosIcSt11char_traitsIcEE5clearESt12_Ios_Iostate(ptr noundef nonnull align 8 dereferenceable(264) %5, i32 noundef %8)
  ret void
}

; Function Attrs: mustprogress nounwind willreturn memory(none) uwtable
define linkonce_odr dso_local noundef zeroext i1 @_ZN4abslltENS_4TimeES0_(i64 %0, i32 %1, i64 %2, i32 %3) #19 comdat {
  %5 = alloca %"class.absl::Time", align 4
  %6 = alloca { i64, i32 }, align 4
  %7 = alloca %"class.absl::Time", align 4
  %8 = alloca { i64, i32 }, align 4
  %9 = alloca %"class.absl::Duration", align 4
  %10 = alloca %"class.absl::Duration", align 4
  %11 = alloca { i64, i32 }, align 4
  %12 = alloca { i64, i32 }, align 4
  %13 = getelementptr inbounds nuw { i64, i32 }, ptr %6, i32 0, i32 0
  store i64 %0, ptr %13, align 4
  %14 = getelementptr inbounds nuw { i64, i32 }, ptr %6, i32 0, i32 1
  store i32 %1, ptr %14, align 4
  call void @llvm.memcpy.p0.p0.i64(ptr align 4 %5, ptr align 4 %6, i64 12, i1 false)
  %15 = getelementptr inbounds nuw { i64, i32 }, ptr %8, i32 0, i32 0
  store i64 %2, ptr %15, align 4
  %16 = getelementptr inbounds nuw { i64, i32 }, ptr %8, i32 0, i32 1
  store i32 %3, ptr %16, align 4
  call void @llvm.memcpy.p0.p0.i64(ptr align 4 %7, ptr align 4 %8, i64 12, i1 false)
  %17 = getelementptr inbounds nuw %"class.absl::Time", ptr %5, i32 0, i32 0
  call void @llvm.memcpy.p0.p0.i64(ptr align 4 %9, ptr align 4 %17, i64 12, i1 false), !tbaa.struct !63
  %18 = getelementptr inbounds nuw %"class.absl::Time", ptr %7, i32 0, i32 0
  call void @llvm.memcpy.p0.p0.i64(ptr align 4 %10, ptr align 4 %18, i64 12, i1 false), !tbaa.struct !63
  call void @llvm.memcpy.p0.p0.i64(ptr align 4 %11, ptr align 4 %9, i64 12, i1 false)
  %19 = getelementptr inbounds nuw { i64, i32 }, ptr %11, i32 0, i32 0
  %20 = load i64, ptr %19, align 4
  %21 = getelementptr inbounds nuw { i64, i32 }, ptr %11, i32 0, i32 1
  %22 = load i32, ptr %21, align 4
  call void @llvm.memcpy.p0.p0.i64(ptr align 4 %12, ptr align 4 %10, i64 12, i1 false)
  %23 = getelementptr inbounds nuw { i64, i32 }, ptr %12, i32 0, i32 0
  %24 = load i64, ptr %23, align 4
  %25 = getelementptr inbounds nuw { i64, i32 }, ptr %12, i32 0, i32 1
  %26 = load i32, ptr %25, align 4
  %27 = call noundef zeroext i1 @_ZN4abslltENS_8DurationES0_(i64 %20, i32 %22, i64 %24, i32 %26) #25
  ret i1 %27
}

; Function Attrs: inlinehint mustprogress uwtable
define available_externally noundef nonnull align 8 dereferenceable(8) ptr @_ZStlsISt11char_traitsIcEERSt13basic_ostreamIcT_ES5_PKc(ptr noundef nonnull align 8 dereferenceable(8) %0, ptr noundef %1) #5 {
  %3 = alloca ptr, align 8
  %4 = alloca ptr, align 8
  store ptr %0, ptr %3, align 8, !tbaa !92
  store ptr %1, ptr %4, align 8, !tbaa !22
  %5 = load ptr, ptr %4, align 8, !tbaa !22
  %6 = icmp ne ptr %5, null
  br i1 %6, label %13, label %7

7:                                                ; preds = %2
  %8 = load ptr, ptr %3, align 8, !tbaa !92
  %9 = load ptr, ptr %8, align 8, !tbaa !13
  %10 = getelementptr i8, ptr %9, i64 -24
  %11 = load i64, ptr %10, align 8
  %12 = getelementptr inbounds i8, ptr %8, i64 %11
  call void @_ZNSt9basic_iosIcSt11char_traitsIcEE8setstateESt12_Ios_Iostate(ptr noundef nonnull align 8 dereferenceable(264) %12, i32 noundef 1)
  br label %19

13:                                               ; preds = %2
  %14 = load ptr, ptr %3, align 8, !tbaa !92
  %15 = load ptr, ptr %4, align 8, !tbaa !22
  %16 = load ptr, ptr %4, align 8, !tbaa !22
  %17 = call noundef i64 @_ZNSt11char_traitsIcE6lengthEPKc(ptr noundef %16)
  %18 = call noundef nonnull align 8 dereferenceable(8) ptr @_ZSt16__ostream_insertIcSt11char_traitsIcEERSt13basic_ostreamIT_T0_ES6_PKS3_l(ptr noundef nonnull align 8 dereferenceable(8) %14, ptr noundef %15, i64 noundef %17)
  br label %19

19:                                               ; preds = %13, %7
  %20 = load ptr, ptr %3, align 8, !tbaa !92
  ret ptr %20
}

; Function Attrs: mustprogress nounwind willreturn memory(none) uwtable
define linkonce_odr dso_local noundef zeroext i1 @_ZN4abslleENS_4TimeES0_(i64 %0, i32 %1, i64 %2, i32 %3) #19 comdat {
  %5 = alloca %"class.absl::Time", align 4
  %6 = alloca { i64, i32 }, align 4
  %7 = alloca %"class.absl::Time", align 4
  %8 = alloca { i64, i32 }, align 4
  %9 = alloca %"class.absl::Time", align 4
  %10 = alloca %"class.absl::Time", align 4
  %11 = alloca { i64, i32 }, align 4
  %12 = alloca { i64, i32 }, align 4
  %13 = getelementptr inbounds nuw { i64, i32 }, ptr %6, i32 0, i32 0
  store i64 %0, ptr %13, align 4
  %14 = getelementptr inbounds nuw { i64, i32 }, ptr %6, i32 0, i32 1
  store i32 %1, ptr %14, align 4
  call void @llvm.memcpy.p0.p0.i64(ptr align 4 %5, ptr align 4 %6, i64 12, i1 false)
  %15 = getelementptr inbounds nuw { i64, i32 }, ptr %8, i32 0, i32 0
  store i64 %2, ptr %15, align 4
  %16 = getelementptr inbounds nuw { i64, i32 }, ptr %8, i32 0, i32 1
  store i32 %3, ptr %16, align 4
  call void @llvm.memcpy.p0.p0.i64(ptr align 4 %7, ptr align 4 %8, i64 12, i1 false)
  call void @llvm.memcpy.p0.p0.i64(ptr align 4 %9, ptr align 4 %7, i64 12, i1 false), !tbaa.struct !63
  call void @llvm.memcpy.p0.p0.i64(ptr align 4 %10, ptr align 4 %5, i64 12, i1 false), !tbaa.struct !63
  call void @llvm.memcpy.p0.p0.i64(ptr align 4 %11, ptr align 4 %9, i64 12, i1 false)
  %17 = getelementptr inbounds nuw { i64, i32 }, ptr %11, i32 0, i32 0
  %18 = load i64, ptr %17, align 4
  %19 = getelementptr inbounds nuw { i64, i32 }, ptr %11, i32 0, i32 1
  %20 = load i32, ptr %19, align 4
  call void @llvm.memcpy.p0.p0.i64(ptr align 4 %12, ptr align 4 %10, i64 12, i1 false)
  %21 = getelementptr inbounds nuw { i64, i32 }, ptr %12, i32 0, i32 0
  %22 = load i64, ptr %21, align 4
  %23 = getelementptr inbounds nuw { i64, i32 }, ptr %12, i32 0, i32 1
  %24 = load i32, ptr %23, align 4
  %25 = call noundef zeroext i1 @_ZN4abslltENS_4TimeES0_(i64 %18, i32 %20, i64 %22, i32 %24) #25
  %26 = xor i1 %25, true
  ret i1 %26
}

; Function Attrs: mustprogress uwtable
define linkonce_odr dso_local noundef nonnull align 8 dereferenceable(16) ptr @_ZN7testing19MatchResultListenerlsIA35_cEERS0_RKT_(ptr noundef nonnull align 8 dereferenceable(16) %0, ptr noundef nonnull align 1 dereferenceable(35) %1) #4 comdat align 2 {
  %3 = alloca ptr, align 8
  %4 = alloca ptr, align 8
  store ptr %0, ptr %3, align 8, !tbaa !94
  store ptr %1, ptr %4, align 8, !tbaa !22
  %5 = load ptr, ptr %3, align 8
  %6 = getelementptr inbounds nuw %"class.testing::MatchResultListener", ptr %5, i32 0, i32 1
  %7 = load ptr, ptr %6, align 8, !tbaa !327
  %8 = icmp ne ptr %7, null
  br i1 %8, label %9, label %15

9:                                                ; preds = %2
  %10 = getelementptr inbounds nuw %"class.testing::MatchResultListener", ptr %5, i32 0, i32 1
  %11 = load ptr, ptr %10, align 8, !tbaa !327
  %12 = load ptr, ptr %4, align 8, !tbaa !22
  %13 = getelementptr inbounds [35 x i8], ptr %12, i64 0, i64 0
  %14 = call noundef nonnull align 8 dereferenceable(8) ptr @_ZStlsISt11char_traitsIcEERSt13basic_ostreamIcT_ES5_PKc(ptr noundef nonnull align 8 dereferenceable(8) %11, ptr noundef %13)
  br label %15

15:                                               ; preds = %9, %2
  ret ptr %5
}

; Function Attrs: inlinehint mustprogress uwtable
define internal noundef zeroext i1 @"_ZZN4absl12log_internal13InMatchWindowEvENK3$_0clENS_4TimeE"(ptr noundef nonnull align 1 dereferenceable(1) %0, i64 %1, i32 %2) #5 align 2 {
  %4 = alloca %"class.absl::Time", align 4
  %5 = alloca { i64, i32 }, align 4
  %6 = alloca ptr, align 8
  %7 = alloca %"class.absl::Time", align 4
  %8 = alloca %"class.absl::Time", align 4
  %9 = alloca { i64, i32 }, align 8
  %10 = alloca { i64, i32 }, align 4
  %11 = alloca { i64, i32 }, align 4
  %12 = getelementptr inbounds nuw { i64, i32 }, ptr %5, i32 0, i32 0
  store i64 %1, ptr %12, align 4
  %13 = getelementptr inbounds nuw { i64, i32 }, ptr %5, i32 0, i32 1
  store i32 %2, ptr %13, align 4
  call void @llvm.memcpy.p0.p0.i64(ptr align 4 %4, ptr align 4 %5, i64 12, i1 false)
  store ptr %0, ptr %6, align 8, !tbaa !350
  call void @llvm.memcpy.p0.p0.i64(ptr align 4 %7, ptr align 4 %4, i64 12, i1 false), !tbaa.struct !63
  %14 = call { i64, i32 } @_ZN4absl3NowEv()
  %15 = getelementptr inbounds nuw %"class.absl::Time", ptr %8, i32 0, i32 0
  store { i64, i32 } %14, ptr %9, align 8
  call void @llvm.memcpy.p0.p0.i64(ptr align 4 %15, ptr align 8 %9, i64 12, i1 false)
  call void @llvm.memcpy.p0.p0.i64(ptr align 4 %10, ptr align 4 %7, i64 12, i1 false)
  %16 = getelementptr inbounds nuw { i64, i32 }, ptr %10, i32 0, i32 0
  %17 = load i64, ptr %16, align 4
  %18 = getelementptr inbounds nuw { i64, i32 }, ptr %10, i32 0, i32 1
  %19 = load i32, ptr %18, align 4
  call void @llvm.memcpy.p0.p0.i64(ptr align 4 %11, ptr align 4 %8, i64 12, i1 false)
  %20 = getelementptr inbounds nuw { i64, i32 }, ptr %11, i32 0, i32 0
  %21 = load i64, ptr %20, align 4
  %22 = getelementptr inbounds nuw { i64, i32 }, ptr %11, i32 0, i32 1
  %23 = load i32, ptr %22, align 4
  %24 = call noundef zeroext i1 @_ZN4abslleENS_4TimeES0_(i64 %17, i32 %19, i64 %21, i32 %23) #25
  ret i1 %24
}

; Function Attrs: mustprogress uwtable
define internal noundef zeroext i1 @"_ZNK7testing8internal12TrulyMatcherIZN4absl12log_internal13InMatchWindowEvE3$_0E15MatchAndExplainIKNS2_4TimeEEEbRT_PNS_19MatchResultListenerE"(ptr noundef nonnull align 1 dereferenceable(1) %0, ptr noundef nonnull align 4 dereferenceable(12) %1, ptr noundef %2) #4 align 2 {
  %4 = alloca i1, align 1
  %5 = alloca ptr, align 8
  %6 = alloca ptr, align 8
  %7 = alloca ptr, align 8
  %8 = alloca %"class.absl::Time", align 4
  %9 = alloca { i64, i32 }, align 4
  store ptr %0, ptr %5, align 8, !tbaa !689
  store ptr %1, ptr %6, align 8, !tbaa !632
  store ptr %2, ptr %7, align 8, !tbaa !94
  %10 = load ptr, ptr %5, align 8
  %11 = load ptr, ptr %6, align 8, !tbaa !632
  call void @llvm.memcpy.p0.p0.i64(ptr align 4 %8, ptr align 4 %11, i64 12, i1 false), !tbaa.struct !63
  call void @llvm.memcpy.p0.p0.i64(ptr align 4 %9, ptr align 4 %8, i64 12, i1 false)
  %12 = getelementptr inbounds nuw { i64, i32 }, ptr %9, i32 0, i32 0
  %13 = load i64, ptr %12, align 4
  %14 = getelementptr inbounds nuw { i64, i32 }, ptr %9, i32 0, i32 1
  %15 = load i32, ptr %14, align 4
  %16 = call noundef zeroext i1 @"_ZZN4absl12log_internal13InMatchWindowEvENK3$_0clENS_4TimeE"(ptr noundef nonnull align 1 dereferenceable(1) %10, i64 %13, i32 %15)
  br i1 %16, label %17, label %18

17:                                               ; preds = %3
  store i1 true, ptr %4, align 1
  br label %21

18:                                               ; preds = %3
  %19 = load ptr, ptr %7, align 8, !tbaa !94
  %20 = call noundef nonnull align 8 dereferenceable(16) ptr @_ZN7testing19MatchResultListenerlsIA35_cEERS0_RKT_(ptr noundef nonnull align 8 dereferenceable(16) %19, ptr noundef nonnull align 1 dereferenceable(35) @.str.43)
  store i1 false, ptr %4, align 1
  br label %21

21:                                               ; preds = %18, %17
  %22 = load i1, ptr %4, align 1
  ret i1 %22
}

; Function Attrs: mustprogress uwtable
define internal noundef zeroext i1 @"_ZNK7testing18PolymorphicMatcherINS_8internal12TrulyMatcherIZN4absl12log_internal13InMatchWindowEvE3$_0EEE15MonomorphicImplIRKNS3_4TimeEE15MatchAndExplainESB_PNS_19MatchResultListenerE"(ptr noundef nonnull align 8 dereferenceable(9) %0, ptr noundef nonnull align 4 dereferenceable(12) %1, ptr noundef %2) unnamed_addr #4 align 2 {
  %4 = alloca ptr, align 8
  %5 = alloca ptr, align 8
  %6 = alloca ptr, align 8
  store ptr %0, ptr %4, align 8, !tbaa !754
  store ptr %1, ptr %5, align 8, !tbaa !632
  store ptr %2, ptr %6, align 8, !tbaa !94
  %7 = load ptr, ptr %4, align 8
  %8 = getelementptr inbounds i8, ptr %7, i64 8
  %9 = load ptr, ptr %5, align 8, !tbaa !632
  %10 = load ptr, ptr %6, align 8, !tbaa !94
  %11 = call noundef zeroext i1 @"_ZNK7testing8internal12TrulyMatcherIZN4absl12log_internal13InMatchWindowEvE3$_0E15MatchAndExplainIKNS2_4TimeEEEbRT_PNS_19MatchResultListenerE"(ptr noundef nonnull align 1 dereferenceable(1) %8, ptr noundef nonnull align 4 dereferenceable(12) %9, ptr noundef %10)
  ret i1 %11
}