; Function Attrs: mustprogress uwtable
define internal noundef zeroext i1 @"_ZNK7testing18PolymorphicMatcherINS_8internal12TrulyMatcherIZN4absl12log_internal13InMatchWindowEvE3$_0EEE15MonomorphicImplIRKNS3_4TimeEE15MatchAndExplainESB_PNS_19MatchResultListenerE"(ptr nonnull readnone align 8 captures(none) %0, ptr noundef nonnull readonly align 4 captures(none) dereferenceable(12) %1, ptr noundef readonly captures(none) %2) unnamed_addr #3 align 2 {
  %.val = load i64, ptr %1, align 4
  %4 = getelementptr inbounds nuw i8, ptr %1, i64 8
  %.val3 = load i32, ptr %4, align 4, !tbaa !176
  %5 = tail call { i64, i32 } @_ZN4absl3NowEv()
  %.fca.0.extract.i.i = extractvalue { i64, i32 } %5, 0
  %.fca.1.extract.i.i = extractvalue { i64, i32 } %5, 1
  %.not.i.i.i.i.i = icmp eq i64 %.fca.0.extract.i.i, %.val
  br i1 %.not.i.i.i.i.i, label %8, label %6

6:                                                ; preds = %3
  %7 = icmp slt i64 %.fca.0.extract.i.i, %.val
  br i1 %7, label %15, label %"_ZNK7testing8internal12TrulyMatcherIZN4absl12log_internal13InMatchWindowEvE3$_0E15MatchAndExplainIKNS2_4TimeEEEbRT_PNS_19MatchResultListenerE.exit"

8:                                                ; preds = %3
  %9 = icmp eq i64 %.val, -9223372036854775808
  br i1 %9, label %10, label %"_ZZN4absl12log_internal13InMatchWindowEvENK3$_0clENS_4TimeE.exit.i"

10:                                               ; preds = %8
  %11 = add i32 %.fca.1.extract.i.i, 1
  %12 = add i32 %.val3, 1
  %13 = icmp ult i32 %11, %12
  br i1 %13, label %15, label %"_ZNK7testing8internal12TrulyMatcherIZN4absl12log_internal13InMatchWindowEvE3$_0E15MatchAndExplainIKNS2_4TimeEEEbRT_PNS_19MatchResultListenerE.exit"

"_ZZN4absl12log_internal13InMatchWindowEvENK3$_0clENS_4TimeE.exit.i": ; preds = %8
  %14 = icmp ult i32 %.fca.1.extract.i.i, %.val3
  br i1 %14, label %15, label %"_ZNK7testing8internal12TrulyMatcherIZN4absl12log_internal13InMatchWindowEvE3$_0E15MatchAndExplainIKNS2_4TimeEEEbRT_PNS_19MatchResultListenerE.exit"

15:                                               ; preds = %"_ZZN4absl12log_internal13InMatchWindowEvENK3$_0clENS_4TimeE.exit.i", %10, %6
  %16 = getelementptr inbounds nuw i8, ptr %2, i64 8
  %17 = load ptr, ptr %16, align 8, !tbaa !275
  %.not.i.i = icmp eq ptr %17, null
  br i1 %.not.i.i, label %"_ZNK7testing8internal12TrulyMatcherIZN4absl12log_internal13InMatchWindowEvE3$_0E15MatchAndExplainIKNS2_4TimeEEEbRT_PNS_19MatchResultListenerE.exit", label %18

18:                                               ; preds = %15
  %19 = tail call noundef nonnull align 8 dereferenceable(8) ptr @_ZSt16__ostream_insertIcSt11char_traitsIcEERSt13basic_ostreamIT_T0_ES6_PKS3_l(ptr noundef nonnull align 8 dereferenceable(8) %17, ptr noundef nonnull @.str.43, i64 noundef 34)
  br label %"_ZNK7testing8internal12TrulyMatcherIZN4absl12log_internal13InMatchWindowEvE3$_0E15MatchAndExplainIKNS2_4TimeEEEbRT_PNS_19MatchResultListenerE.exit"

"_ZNK7testing8internal12TrulyMatcherIZN4absl12log_internal13InMatchWindowEvE3$_0E15MatchAndExplainIKNS2_4TimeEEEbRT_PNS_19MatchResultListenerE.exit": ; preds = %6, %10, %"_ZZN4absl12log_internal13InMatchWindowEvENK3$_0clENS_4TimeE.exit.i", %15, %18
  %20 = phi i1 [ true, %6 ], [ false, %18 ], [ false, %15 ], [ true, %"_ZZN4absl12log_internal13InMatchWindowEvENK3$_0clENS_4TimeE.exit.i" ], [ true, %10 ]
  ret i1 %20
}